; Function Attrs: mustprogress nofree norecurse nosync nounwind willreturn memory(read, inaccessiblemem: none) uwtable
define dso_local noundef zeroext i1 @_ZNK4Type20is_dereferenced_fromEPKS_(ptr noundef nonnull readnone align 8 dereferenceable(136) %0, ptr nocapture noundef readonly %1) local_unnamed_addr #10 align 2 {
  %3 = load i32, ptr %1, align 8
  %4 = icmp eq i32 %3, 1
  br i1 %4, label %.preheader, label %.loopexit

.preheader:                                       ; preds = %2, %.preheader
  %.pn = phi ptr [ %.0, %.preheader ], [ %1, %2 ]
  %.0.in = getelementptr inbounds i8, ptr %.pn, i64 8
  %.0 = load ptr, ptr %.0.in, align 8
  %.not.not = icmp ne ptr %.0, null
  %5 = icmp ne ptr %.0, %0
  %or.cond.not = and i1 %5, %.not.not
  br i1 %or.cond.not, label %.preheader, label %.loopexit, !llvm.loop !46

.loopexit:                                        ; preds = %.preheader, %2
  %.07 = phi i1 [ false, %2 ], [ %.not.not, %.preheader ]
  ret i1 %.07
}